target datalayout = "e-m:e-p270:32:32-p271:32:32-p272:64:64-i64:64-i128:128-f80:128-n8:16:32:64-S128"
target triple = "x86_64-pc-linux-gnu"

%"class.pxrInternal_v0_24__pxrReserved__::TfHash" = type { i8 }
%"class.pxrInternal_v0_24__pxrReserved__::Tf_HashState" = type <{ i64, i8, [7 x i8] }>

; Function Attrs: mustprogress nounwind uwtable
define linkonce_odr noundef i64 @_ZNK32pxrInternal_v0_24__pxrReserved__12Tf_HashState14_SwapByteOrderEm(ptr noundef nonnull align 8 dereferenceable(9) %0, i64 noundef %1) #2 comdat align 2 {
  %3 = alloca ptr, align 8
  %4 = alloca i64, align 8
  store ptr %0, ptr %3, align 8
  store i64 %1, ptr %4, align 8
  %5 = load i64, ptr %4, align 8
  %6 = and i64 %5, -72057594037927936
  %7 = lshr i64 %6, 56
  %8 = load i64, ptr %4, align 8
  %9 = and i64 %8, 71776119061217280
  %10 = lshr i64 %9, 40
  %11 = or i64 %7, %10
  %12 = load i64, ptr %4, align 8
  %13 = and i64 %12, 280375465082880
  %14 = lshr i64 %13, 24
  %15 = or i64 %11, %14
  %16 = load i64, ptr %4, align 8
  %17 = and i64 %16, 1095216660480
  %18 = lshr i64 %17, 8
  %19 = or i64 %15, %18
  %20 = load i64, ptr %4, align 8
  %21 = and i64 %20, 4278190080
  %22 = shl i64 %21, 8
  %23 = or i64 %19, %22
  %24 = load i64, ptr %4, align 8
  %25 = and i64 %24, 16711680
  %26 = shl i64 %25, 24
  %27 = or i64 %23, %26
  %28 = load i64, ptr %4, align 8
  %29 = and i64 %28, 65280
  %30 = shl i64 %29, 40
  %31 = or i64 %27, %30
  %32 = load i64, ptr %4, align 8
  %33 = and i64 %32, 255
  %34 = shl i64 %33, 56
  %35 = or i64 %31, %34
  store i64 %35, ptr %4, align 8
  %36 = load i64, ptr %4, align 8
  ret i64 %36
}

; Function Attrs: mustprogress uwtable
define linkonce_odr noundef i64 @_ZNK32pxrInternal_v0_24__pxrReserved__12Tf_HashState8_GetCodeEv(ptr noundef nonnull align 8 dereferenceable(9) %0) #0 comdat align 2 {
  %2 = alloca ptr, align 8
  store ptr %0, ptr %2, align 8
  %3 = load ptr, ptr %2, align 8
  %4 = getelementptr inbounds nuw %"class.pxrInternal_v0_24__pxrReserved__::Tf_HashState", ptr %3, i32 0, i32 0
  %5 = load i64, ptr %4, align 8
  %6 = mul i64 %5, -7046029254386353067
  %7 = call noundef i64 @_ZNK32pxrInternal_v0_24__pxrReserved__12Tf_HashState14_SwapByteOrderEm(ptr noundef nonnull align 8 dereferenceable(9) %3, i64 noundef %6)
  ret i64 %7
}

; Function Attrs: mustprogress nounwind uwtable
define linkonce_odr noundef nonnull align 8 dereferenceable(9) ptr @_ZNK32pxrInternal_v0_24__pxrReserved__15Tf_HashStateAPIINS_12Tf_HashStateEE10_AsDerivedEv(ptr noundef nonnull align 1 dereferenceable(1) %0) #2 comdat align 2 {
  %2 = alloca ptr, align 8
  store ptr %0, ptr %2, align 8
  %3 = load ptr, ptr %2, align 8
  ret ptr %3
}

; Function Attrs: mustprogress uwtable
define linkonce_odr noundef i64 @_ZNK32pxrInternal_v0_24__pxrReserved__15Tf_HashStateAPIINS_12Tf_HashStateEE7GetCodeEv(ptr noundef nonnull align 1 dereferenceable(1) %0) #0 comdat align 2 {
  %2 = alloca ptr, align 8
  store ptr %0, ptr %2, align 8
  %3 = load ptr, ptr %2, align 8
  %4 = call noundef nonnull align 8 dereferenceable(9) ptr @_ZNK32pxrInternal_v0_24__pxrReserved__15Tf_HashStateAPIINS_12Tf_HashStateEE10_AsDerivedEv(ptr noundef nonnull align 1 dereferenceable(1) %3)
  %5 = call noundef i64 @_ZNK32pxrInternal_v0_24__pxrReserved__12Tf_HashState8_GetCodeEv(ptr noundef nonnull align 8 dereferenceable(9) %4)
  ret i64 %5
}

; Function Attrs: mustprogress nounwind uwtable
define linkonce_odr void @_ZN32pxrInternal_v0_24__pxrReserved__12Tf_HashStateC2Ev(ptr noundef nonnull align 8 dereferenceable(9) %0) unnamed_addr #2 comdat align 2 {
  %2 = alloca ptr, align 8
  store ptr %0, ptr %2, align 8
  %3 = load ptr, ptr %2, align 8
  %4 = getelementptr inbounds nuw %"class.pxrInternal_v0_24__pxrReserved__::Tf_HashState", ptr %3, i32 0, i32 0
  store i64 0, ptr %4, align 8
  %5 = getelementptr inbounds nuw %"class.pxrInternal_v0_24__pxrReserved__::Tf_HashState", ptr %3, i32 0, i32 1
  store i8 0, ptr %5, align 8
  ret void
}

; Function Attrs: mustprogress uwtable
define linkonce_odr noundef i64 @_ZNK32pxrInternal_v0_24__pxrReserved__6TfHashclIRKNS_16HdRenderSettings13RenderProductEEEDTcmcl11Tf_HashImplclL_ZSt7declvalIRNS_12Tf_HashStateEEDTcl9__declvalIT_ELi0EEEvEEclsr3stdE7forwardIS9_Efp_ELi0EEcvm_EEOS9_(ptr noundef nonnull align 1 dereferenceable(1) %0, ptr noundef nonnull align 8 dereferenceable(120) %1) #0 comdat align 2 {
  %3 = alloca ptr, align 8
  %4 = alloca ptr, align 8
  %5 = alloca %"class.pxrInternal_v0_24__pxrReserved__::Tf_HashState", align 8
  store ptr %0, ptr %3, align 8
  store ptr %1, ptr %4, align 8
  call void @_ZN32pxrInternal_v0_24__pxrReserved__12Tf_HashStateC2Ev(ptr noundef nonnull align 8 dereferenceable(9) %5) #11
  %6 = load ptr, ptr %4, align 8
  call void (ptr, ptr, ...) @_ZN32pxrInternal_v0_24__pxrReserved__11Tf_HashImplINS_12Tf_HashStateERKNS_16HdRenderSettings13RenderProductEEEDTcmcl10hash_valueclsr3stdE7forwardIT0_Efp0_EEcvv_EERT_OS6_z(ptr noundef nonnull align 8 dereferenceable(9) %5, ptr noundef nonnull align 8 dereferenceable(120) %6, i32 noundef 0)
  %7 = call noundef i64 @_ZNK32pxrInternal_v0_24__pxrReserved__15Tf_HashStateAPIINS_12Tf_HashStateEE7GetCodeEv(ptr noundef nonnull align 1 dereferenceable(1) %5)
  ret i64 %7
}

; Function Attrs: mustprogress uwtable
define noundef i64 @_ZN32pxrInternal_v0_24__pxrReserved__10hash_valueERKNS_16HdRenderSettings13RenderProductE(ptr noundef nonnull align 8 dereferenceable(120) %0) #0 {
  %2 = alloca ptr, align 8
  %3 = alloca %"class.pxrInternal_v0_24__pxrReserved__::TfHash", align 1
  store ptr %0, ptr %2, align 8
  %4 = load ptr, ptr %2, align 8
  %5 = call noundef i64 @_ZNK32pxrInternal_v0_24__pxrReserved__6TfHashclIRKNS_16HdRenderSettings13RenderProductEEEDTcmcl11Tf_HashImplclL_ZSt7declvalIRNS_12Tf_HashStateEEDTcl9__declvalIT_ELi0EEEvEEclsr3stdE7forwardIS9_Efp_ELi0EEcvm_EEOS9_(ptr noundef nonnull align 1 dereferenceable(1) %3, ptr noundef nonnull align 8 dereferenceable(120) %4)
  ret i64 %5
}