; Function Attrs: mustprogress uwtable
define noundef i64 @_ZN32pxrInternal_v0_24__pxrReserved__10hash_valueERKNS_16HdRenderSettings13RenderProductE(ptr noundef nonnull align 8 dereferenceable(120) %0) local_unnamed_addr #0 {
  %2 = alloca %"class.pxrInternal_v0_24__pxrReserved__::Tf_HashState", align 8
  call void @llvm.lifetime.start.p0(i64 16, ptr nonnull %2)
  store i64 0, ptr %2, align 8
  %3 = getelementptr inbounds nuw i8, ptr %2, i64 8
  store i8 0, ptr %3, align 8
  call void (ptr, ptr, ...) @_ZN32pxrInternal_v0_24__pxrReserved__11Tf_HashImplINS_12Tf_HashStateERKNS_16HdRenderSettings13RenderProductEEEDTcmcl10hash_valueclsr3stdE7forwardIT0_Efp0_EEcvv_EERT_OS6_z(ptr noundef nonnull align 8 dereferenceable(9) %2, ptr noundef nonnull align 8 dereferenceable(120) %0, i32 noundef 0)
  %4 = load i64, ptr %2, align 8
  %5 = mul i64 %4, -7046029254386353067
  %6 = call noundef i64 @llvm.bswap.i64(i64 %5)
  call void @llvm.lifetime.end.p0(i64 16, ptr nonnull %2)
  ret i64 %6
}